target datalayout = "e-m:e-p270:32:32-p271:32:32-p272:64:64-i64:64-i128:128-f80:128-n8:16:32:64-S128"
target triple = "x86_64-pc-linux-gnu"

%struct.sha256_state_st = type { [8 x i32], i32, i32, [64 x i8], i32, i32 }

; Function Attrs: nounwind uwtable
define hidden i32 @SHA224_Init(ptr noundef %0) #0 {
  %2 = alloca ptr, align 8
  store ptr %0, ptr %2, align 8, !tbaa !6
  %3 = load ptr, ptr %2, align 8, !tbaa !6
  call void @llvm.memset.p0.i64(ptr align 4 %3, i8 0, i64 112, i1 false)
  %4 = load ptr, ptr %2, align 8, !tbaa !6
  %5 = getelementptr inbounds nuw %struct.sha256_state_st, ptr %4, i32 0, i32 0
  %6 = getelementptr inbounds [8 x i32], ptr %5, i64 0, i64 0
  store i32 -1056596264, ptr %6, align 4, !tbaa !11
  %7 = load ptr, ptr %2, align 8, !tbaa !6
  %8 = getelementptr inbounds nuw %struct.sha256_state_st, ptr %7, i32 0, i32 0
  %9 = getelementptr inbounds [8 x i32], ptr %8, i64 0, i64 1
  store i32 914150663, ptr %9, align 4, !tbaa !11
  %10 = load ptr, ptr %2, align 8, !tbaa !6
  %11 = getelementptr inbounds nuw %struct.sha256_state_st, ptr %10, i32 0, i32 0
  %12 = getelementptr inbounds [8 x i32], ptr %11, i64 0, i64 2
  store i32 812702999, ptr %12, align 4, !tbaa !11
  %13 = load ptr, ptr %2, align 8, !tbaa !6
  %14 = getelementptr inbounds nuw %struct.sha256_state_st, ptr %13, i32 0, i32 0
  %15 = getelementptr inbounds [8 x i32], ptr %14, i64 0, i64 3
  store i32 -150054599, ptr %15, align 4, !tbaa !11
  %16 = load ptr, ptr %2, align 8, !tbaa !6
  %17 = getelementptr inbounds nuw %struct.sha256_state_st, ptr %16, i32 0, i32 0
  %18 = getelementptr inbounds [8 x i32], ptr %17, i64 0, i64 4
  store i32 -4191439, ptr %18, align 4, !tbaa !11
  %19 = load ptr, ptr %2, align 8, !tbaa !6
  %20 = getelementptr inbounds nuw %struct.sha256_state_st, ptr %19, i32 0, i32 0
  %21 = getelementptr inbounds [8 x i32], ptr %20, i64 0, i64 5
  store i32 1750603025, ptr %21, align 4, !tbaa !11
  %22 = load ptr, ptr %2, align 8, !tbaa !6
  %23 = getelementptr inbounds nuw %struct.sha256_state_st, ptr %22, i32 0, i32 0
  %24 = getelementptr inbounds [8 x i32], ptr %23, i64 0, i64 6
  store i32 1694076839, ptr %24, align 4, !tbaa !11
  %25 = load ptr, ptr %2, align 8, !tbaa !6
  %26 = getelementptr inbounds nuw %struct.sha256_state_st, ptr %25, i32 0, i32 0
  %27 = getelementptr inbounds [8 x i32], ptr %26, i64 0, i64 7
  store i32 -1090891868, ptr %27, align 4, !tbaa !11
  %28 = load ptr, ptr %2, align 8, !tbaa !6
  %29 = getelementptr inbounds nuw %struct.sha256_state_st, ptr %28, i32 0, i32 5
  store i32 28, ptr %29, align 4, !tbaa !13
  ret i32 1
}